target datalayout = "e-m:e-p270:32:32-p271:32:32-p272:64:64-i64:64-i128:128-f80:128-n8:16:32:64-S128"
target triple = "x86_64-pc-linux-gnu"

%"class.duckdb::CompressionInfo" = type { i64 }
%"struct.duckdb::roaring::RoaringAnalyzeState" = type { %"struct.duckdb::AnalyzeState", %"class.duckdb::unique_ptr.64", i16, i16, i16, i8, i16, i64, i64, i64, i64, i64, i64, %"struct.duckdb::roaring::ContainerMetadataCollection", %"class.duckdb::vector.79" }
%"struct.duckdb::AnalyzeState" = type { ptr, %"class.duckdb::CompressionInfo" }
%"class.duckdb::unique_ptr.64" = type { %"class.std::unique_ptr.65" }
%"class.std::unique_ptr.65" = type { %"struct.std::__uniq_ptr_data.66" }
%"struct.std::__uniq_ptr_data.66" = type { %"class.std::__uniq_ptr_impl.67" }
%"class.std::__uniq_ptr_impl.67" = type { %"class.std::tuple.68" }
%"class.std::tuple.68" = type { %"struct.std::_Tuple_impl.69" }
%"struct.std::_Tuple_impl.69" = type { %"struct.std::_Head_base.72" }
%"struct.std::_Head_base.72" = type { ptr }
%"struct.duckdb::roaring::ContainerMetadataCollection" = type { %"class.duckdb::vector.73", %"class.duckdb::vector.73", %"class.duckdb::vector.73", i64, i64, i64 }
%"class.duckdb::vector.73" = type { %"class.std::vector.74" }
%"class.std::vector.74" = type { %"struct.std::_Vector_base.75" }
%"struct.std::_Vector_base.75" = type { %"struct.std::_Vector_base<unsigned char, std::allocator<unsigned char>>::_Vector_impl" }
%"struct.std::_Vector_base<unsigned char, std::allocator<unsigned char>>::_Vector_impl" = type { %"struct.std::_Vector_base<unsigned char, std::allocator<unsigned char>>::_Vector_impl_data" }
%"struct.std::_Vector_base<unsigned char, std::allocator<unsigned char>>::_Vector_impl_data" = type { ptr, ptr, ptr }
%"class.duckdb::vector.79" = type { %"class.std::vector.80" }
%"class.std::vector.80" = type { %"struct.std::_Vector_base.81" }
%"struct.std::_Vector_base.81" = type { %"struct.std::_Vector_base<duckdb::roaring::ContainerMetadata, std::allocator<duckdb::roaring::ContainerMetadata>>::_Vector_impl" }
%"struct.std::_Vector_base<duckdb::roaring::ContainerMetadata, std::allocator<duckdb::roaring::ContainerMetadata>>::_Vector_impl" = type { %"struct.std::_Vector_base<duckdb::roaring::ContainerMetadata, std::allocator<duckdb::roaring::ContainerMetadata>>::_Vector_impl_data" }
%"struct.std::_Vector_base<duckdb::roaring::ContainerMetadata, std::allocator<duckdb::roaring::ContainerMetadata>>::_Vector_impl_data" = type { ptr, ptr, ptr }

; Function Attrs: mustprogress nounwind uwtable
define void @_ZN6duckdb7roaring19RoaringAnalyzeState15HandleNoneValidERS1_m(ptr noundef nonnull align 8 dereferenceable(208) %0, i64 noundef %1) #2 align 2 {
  %3 = alloca ptr, align 8
  %4 = alloca i64, align 8
  store ptr %0, ptr %3, align 8, !tbaa !97
  store i64 %1, ptr %4, align 8, !tbaa !8
  %5 = load ptr, ptr %3, align 8, !tbaa !97
  %6 = getelementptr inbounds nuw %"struct.duckdb::roaring::RoaringAnalyzeState", ptr %5, i32 0, i32 6
  %7 = load i16, ptr %6, align 8, !tbaa !130
  %8 = icmp ne i16 %7, 0
  br i1 %8, label %9, label %16

9:                                                ; preds = %2
  %10 = load ptr, ptr %3, align 8, !tbaa !97
  %11 = getelementptr inbounds nuw %"struct.duckdb::roaring::RoaringAnalyzeState", ptr %10, i32 0, i32 5
  %12 = load i8, ptr %11, align 2, !tbaa !142, !range !278, !noundef !279
  %13 = trunc i8 %12 to i1
  %14 = zext i1 %13 to i32
  %15 = icmp ne i32 %14, 0
  br i1 %15, label %16, label %21

16:                                               ; preds = %9, %2
  %17 = load ptr, ptr %3, align 8, !tbaa !97
  %18 = getelementptr inbounds nuw %"struct.duckdb::roaring::RoaringAnalyzeState", ptr %17, i32 0, i32 4
  %19 = load i16, ptr %18, align 4, !tbaa !141
  %20 = add i16 %19, 1
  store i16 %20, ptr %18, align 4, !tbaa !141
  br label %21

21:                                               ; preds = %16, %9
  %22 = load i64, ptr %4, align 8, !tbaa !8
  %23 = load ptr, ptr %3, align 8, !tbaa !97
  %24 = getelementptr inbounds nuw %"struct.duckdb::roaring::RoaringAnalyzeState", ptr %23, i32 0, i32 3
  %25 = load i16, ptr %24, align 2, !tbaa !140
  %26 = zext i16 %25 to i64
  %27 = add i64 %26, %22
  %28 = trunc i64 %27 to i16
  store i16 %28, ptr %24, align 2, !tbaa !140
  %29 = load ptr, ptr %3, align 8, !tbaa !97
  %30 = getelementptr inbounds nuw %"struct.duckdb::roaring::RoaringAnalyzeState", ptr %29, i32 0, i32 5
  store i8 0, ptr %30, align 2, !tbaa !142
  %31 = load i64, ptr %4, align 8, !tbaa !8
  %32 = load ptr, ptr %3, align 8, !tbaa !97
  %33 = getelementptr inbounds nuw %"struct.duckdb::roaring::RoaringAnalyzeState", ptr %32, i32 0, i32 6
  %34 = load i16, ptr %33, align 8, !tbaa !130
  %35 = zext i16 %34 to i64
  %36 = add i64 %35, %31
  %37 = trunc i64 %36 to i16
  store i16 %37, ptr %33, align 8, !tbaa !130
  ret void
}