; Function Attrs: mustprogress nofree norecurse nosync nounwind willreturn memory(argmem: readwrite) uwtable
define void @_ZN6duckdb7roaring19RoaringAnalyzeState15HandleNoneValidERS1_m(ptr noundef nonnull align 8 captures(none) dereferenceable(208) %0, i64 noundef %1) local_unnamed_addr #5 align 2 {
  %3 = getelementptr inbounds nuw i8, ptr %0, i64 32
  %4 = load i16, ptr %3, align 8, !tbaa !117
  %.not = icmp eq i16 %4, 0
  br i1 %.not, label %9, label %5

5:                                                ; preds = %2
  %6 = getelementptr inbounds nuw i8, ptr %0, i64 30
  %7 = load i8, ptr %6, align 2, !tbaa !318, !range !319, !noundef !229
  %8 = trunc nuw i8 %7 to i1
  br i1 %8, label %9, label %13

9:                                                ; preds = %5, %2
  %10 = getelementptr inbounds nuw i8, ptr %0, i64 28
  %11 = load i16, ptr %10, align 4, !tbaa !120
  %12 = add i16 %11, 1
  store i16 %12, ptr %10, align 4, !tbaa !120
  br label %13

13:                                               ; preds = %9, %5
  %14 = getelementptr inbounds nuw i8, ptr %0, i64 26
  %15 = load i16, ptr %14, align 2, !tbaa !118
  %16 = trunc i64 %1 to i16
  %17 = add i16 %15, %16
  store i16 %17, ptr %14, align 2, !tbaa !118
  %18 = getelementptr inbounds nuw i8, ptr %0, i64 30
  store i8 0, ptr %18, align 2, !tbaa !318
  %19 = add i16 %4, %16
  store i16 %19, ptr %3, align 8, !tbaa !117
  ret void
}